target datalayout = "e-m:e-p270:32:32-p271:32:32-p272:64:64-i64:64-i128:128-f80:128-n8:16:32:64-S128"
target triple = "x86_64-pc-linux-gnu"

@hf_mount_groups_group = internal global i32 0, align 4

; Function Attrs: null_pointer_is_valid sspstrong uwtable
define internal i32 @dissect_group(ptr noundef %0, i32 noundef %1, ptr noundef %2, ptr noundef %3, ptr noundef %4) #0 {
  %6 = alloca ptr, align 8
  %7 = alloca i32, align 4
  %8 = alloca ptr, align 8
  %9 = alloca ptr, align 8
  %10 = alloca ptr, align 8
  %11 = alloca ptr, align 8
  %12 = alloca ptr, align 8
  store ptr %0, ptr %6, align 8
  store i32 %1, ptr %7, align 4
  store ptr %2, ptr %8, align 8
  store ptr %3, ptr %9, align 8
  store ptr %4, ptr %10, align 8
  call void @llvm.lifetime.start.p0(i64 8, ptr %11) #5
  %13 = load ptr, ptr %10, align 8
  store ptr %13, ptr %11, align 8
  call void @llvm.lifetime.start.p0(i64 8, ptr %12) #5
  %14 = load ptr, ptr %6, align 8
  %15 = load ptr, ptr %9, align 8
  %16 = load i32, ptr @hf_mount_groups_group, align 4
  %17 = load i32, ptr %7, align 4
  %18 = call i32 @dissect_rpc_string(ptr noundef %14, ptr noundef %15, i32 noundef %16, i32 noundef %17, ptr noundef %12)
  store i32 %18, ptr %7, align 4
  %19 = load ptr, ptr %11, align 8
  %20 = call i64 @wmem_strbuf_get_len(ptr noundef %19)
  %21 = icmp ne i64 %20, 0
  br i1 %21, label %22, label %24

22:                                               ; preds = %5
  %23 = load ptr, ptr %11, align 8
  call void @wmem_strbuf_append_c(ptr noundef %23, i8 noundef signext 32)
  br label %24

24:                                               ; preds = %22, %5
  %25 = load ptr, ptr %11, align 8
  %26 = load ptr, ptr %12, align 8
  call void @wmem_strbuf_append(ptr noundef %25, ptr noundef %26)
  %27 = load i32, ptr %7, align 4
  call void @llvm.lifetime.end.p0(i64 8, ptr %12) #5
  call void @llvm.lifetime.end.p0(i64 8, ptr %11) #5
  ret i32 %27
}