; Function Attrs: null_pointer_is_valid sspstrong uwtable
define internal i32 @dissect_group(ptr noundef %0, i32 noundef %1, ptr readnone captures(none) %2, ptr noundef %3, ptr noundef %4) #0 {
  %6 = alloca ptr, align 8
  call void @llvm.lifetime.start.p0(i64 8, ptr nonnull %6) #5
  %7 = load i32, ptr @hf_mount_groups_group, align 4
  %8 = call i32 @dissect_rpc_string(ptr noundef %0, ptr noundef %3, i32 noundef %7, i32 noundef %1, ptr noundef nonnull %6)
  %9 = call i64 @wmem_strbuf_get_len(ptr noundef %4)
  %.not = icmp eq i64 %9, 0
  br i1 %.not, label %11, label %10

10:                                               ; preds = %5
  call void @wmem_strbuf_append_c(ptr noundef %4, i8 noundef signext 32)
  br label %11

11:                                               ; preds = %10, %5
  %12 = load ptr, ptr %6, align 8
  call void @wmem_strbuf_append(ptr noundef %4, ptr noundef %12)
  call void @llvm.lifetime.end.p0(i64 8, ptr nonnull %6) #5
  ret i32 %8
}